; Function Attrs: nounwind uwtable
define i64 @l___private_Lean_Server_FileWorker_SemanticHighlighting_0__Lean_Server_FileWorker_hashAbsoluteLspSemanticToken____x40_Lean_Server_FileWorker_SemanticHighlighting___hyg_186_(ptr noundef readonly captures(none) %0) local_unnamed_addr #0 {
  %2 = getelementptr inbounds nuw i8, ptr %0, i64 8
  %3 = load ptr, ptr %2, align 8, !tbaa !11
  %4 = getelementptr inbounds nuw i8, ptr %0, i64 16
  %5 = load ptr, ptr %4, align 8, !tbaa !11
  %6 = getelementptr inbounds nuw i8, ptr %0, i64 24
  %7 = load i8, ptr %6, align 1, !tbaa !13
  %8 = tail call i64 @l___private_Lean_Data_Lsp_Basic_0__Lean_Lsp_hashPosition____x40_Lean_Data_Lsp_Basic___hyg_180_(ptr noundef %3) #7
  %9 = tail call i64 @lean_uint64_mix_hash(i64 noundef 0, i64 noundef %8) #7
  %10 = tail call i64 @l___private_Lean_Data_Lsp_Basic_0__Lean_Lsp_hashPosition____x40_Lean_Data_Lsp_Basic___hyg_180_(ptr noundef %5) #7
  %11 = tail call i64 @lean_uint64_mix_hash(i64 noundef %9, i64 noundef %10) #7
  %12 = tail call i64 @l___private_Lean_Data_Lsp_LanguageFeatures_0__Lean_Lsp_hashSemanticTokenType____x40_Lean_Data_Lsp_LanguageFeatures___hyg_8939_(i8 noundef zeroext %7) #7
  %13 = tail call i64 @lean_uint64_mix_hash(i64 noundef %11, i64 noundef %12) #7
  ret i64 %13
}